; Function Attrs: mustprogress nounwind uwtable
define internal fastcc void @_ZN12_GLOBAL__N_122MempoolSelelemReserverD2Ev(ptr nocapture noundef nonnull readonly align 8 dereferenceable(16) %0) unnamed_addr #5 align 2 personality ptr @__gxx_personality_v0 {
  %2 = load ptr, ptr %0, align 8
  %.not = icmp eq ptr %2, null
  br i1 %.not, label %4, label %3

3:                                                ; preds = %1
  invoke void @_ZN3gmx20SelectionTreeElement14mempoolReleaseEv(ptr noundef nonnull align 8 dereferenceable(168) %2)
          to label %4 unwind label %41

4:                                                ; preds = %3, %1
  %5 = getelementptr inbounds i8, ptr %0, i64 8
  %6 = load ptr, ptr %5, align 8
  %.not.i.i.i = icmp eq ptr %6, null
  br i1 %.not.i.i.i, label %_ZNSt10shared_ptrIN3gmx20SelectionTreeElementEED2Ev.exit, label %7

7:                                                ; preds = %4
  %8 = getelementptr inbounds i8, ptr %6, i64 8
  %9 = load atomic i64, ptr %8 acquire, align 8
  %10 = icmp eq i64 %9, 4294967297
  %11 = trunc i64 %9 to i32
  br i1 %10, label %12, label %17

12:                                               ; preds = %7
  store i32 0, ptr %8, align 8
  %13 = getelementptr inbounds i8, ptr %6, i64 12
  store i32 0, ptr %13, align 4
  %14 = load ptr, ptr %6, align 8
  %15 = getelementptr inbounds i8, ptr %14, i64 16
  %16 = load ptr, ptr %15, align 8
  tail call void %16(ptr noundef nonnull align 8 dereferenceable(16) %6) #18
  br label %_ZNSt16_Sp_counted_baseILN9__gnu_cxx12_Lock_policyE2EE24_M_release_last_use_coldEv.exit.sink.split.i.i.i.i

17:                                               ; preds = %7
  %18 = load i8, ptr @__libc_single_threaded, align 1
  %.not.i.i.i.i = icmp eq i8 %18, 0
  br i1 %.not.i.i.i.i, label %21, label %19

19:                                               ; preds = %17
  %20 = add nsw i32 %11, -1
  store i32 %20, ptr %8, align 4
  br label %23

21:                                               ; preds = %17
  %22 = atomicrmw volatile add ptr %8, i32 -1 acq_rel, align 4
  br label %23

23:                                               ; preds = %21, %19
  %.0.i.i.i.i = phi i32 [ %11, %19 ], [ %22, %21 ]
  %24 = icmp eq i32 %.0.i.i.i.i, 1
  br i1 %24, label %25, label %_ZNSt10shared_ptrIN3gmx20SelectionTreeElementEED2Ev.exit

25:                                               ; preds = %23
  %26 = load ptr, ptr %6, align 8
  %27 = getelementptr inbounds i8, ptr %26, i64 16
  %28 = load ptr, ptr %27, align 8
  tail call void %28(ptr noundef nonnull align 8 dereferenceable(16) %6) #18
  %29 = getelementptr inbounds i8, ptr %6, i64 12
  %30 = load i8, ptr @__libc_single_threaded, align 1
  %.not.i.i.i.i.i.i = icmp eq i8 %30, 0
  br i1 %.not.i.i.i.i.i.i, label %34, label %31

31:                                               ; preds = %25
  %32 = load i32, ptr %29, align 4
  %33 = add nsw i32 %32, -1
  store i32 %33, ptr %29, align 4
  br label %36

34:                                               ; preds = %25
  %35 = atomicrmw volatile add ptr %29, i32 -1 acq_rel, align 4
  br label %36

36:                                               ; preds = %34, %31
  %.0.i.i.i.i.i.i = phi i32 [ %32, %31 ], [ %35, %34 ]
  %37 = icmp eq i32 %.0.i.i.i.i.i.i, 1
  br i1 %37, label %_ZNSt16_Sp_counted_baseILN9__gnu_cxx12_Lock_policyE2EE24_M_release_last_use_coldEv.exit.sink.split.i.i.i.i, label %_ZNSt10shared_ptrIN3gmx20SelectionTreeElementEED2Ev.exit

_ZNSt16_Sp_counted_baseILN9__gnu_cxx12_Lock_policyE2EE24_M_release_last_use_coldEv.exit.sink.split.i.i.i.i: ; preds = %36, %12
  %38 = load ptr, ptr %6, align 8
  %39 = getelementptr inbounds i8, ptr %38, i64 24
  %40 = load ptr, ptr %39, align 8
  tail call void %40(ptr noundef nonnull align 8 dereferenceable(16) %6) #18
  br label %_ZNSt10shared_ptrIN3gmx20SelectionTreeElementEED2Ev.exit

_ZNSt10shared_ptrIN3gmx20SelectionTreeElementEED2Ev.exit: ; preds = %4, %23, %36, %_ZNSt16_Sp_counted_baseILN9__gnu_cxx12_Lock_policyE2EE24_M_release_last_use_coldEv.exit.sink.split.i.i.i.i
  ret void

41:                                               ; preds = %3
  %42 = landingpad { ptr, i32 }
          catch ptr null
  %43 = extractvalue { ptr, i32 } %42, 0
  tail call void @__clang_call_terminate(ptr %43) #19
  unreachable
}